target datalayout = "e-m:e-p270:32:32-p271:32:32-p272:64:64-i64:64-i128:128-f80:128-n8:16:32:64-S128"
target triple = "x86_64-pc-linux-gnu"

%struct.s_xpparam = type { i64, ptr, i64, ptr, i64 }
%struct.option = type { i32, i32, ptr, ptr, ptr, ptr, i32, ptr, i64, ptr, i64, ptr }

@.str.35 = private unnamed_addr constant [21 x i8] c"builtin/merge-file.c\00", align 1
@.str.36 = private unnamed_addr constant [41 x i8] c"option callback does not expect negation\00", align 1
@.str.37 = private unnamed_addr constant [77 x i8] c"option diff-algorithm accepts \22myers\22, \22minimal\22, \22patience\22 and \22histogram\22\00", align 1
@.str.40 = private unnamed_addr constant [1 x i8] zeroinitializer, align 1
@git_gettext_enabled = external global i32, align 4

; Function Attrs: inlinehint nounwind uwtable
define internal i32 @const_error() #3 {
  ret i32 -1
}

; Function Attrs: inlinehint nounwind uwtable
define internal ptr @_(ptr noundef %0) #3 {
  %2 = alloca ptr, align 8
  %3 = alloca ptr, align 8
  store ptr %0, ptr %3, align 8, !tbaa !11
  %4 = load ptr, ptr %3, align 8, !tbaa !11
  %5 = load i8, ptr %4, align 1, !tbaa !81
  %6 = icmp ne i8 %5, 0
  br i1 %6, label %8, label %7

7:                                                ; preds = %1
  store ptr @.str.40, ptr %2, align 8
  br label %16

8:                                                ; preds = %1
  %9 = load i32, ptr @git_gettext_enabled, align 4, !tbaa !4
  %10 = icmp ne i32 %9, 0
  br i1 %10, label %13, label %11

11:                                               ; preds = %8
  %12 = load ptr, ptr %3, align 8, !tbaa !11
  store ptr %12, ptr %2, align 8
  br label %16

13:                                               ; preds = %8
  %14 = load ptr, ptr %3, align 8, !tbaa !11
  %15 = call ptr @dcgettext(ptr noundef null, ptr noundef %14, i32 noundef 5) #9
  store ptr %15, ptr %2, align 8
  br label %16

16:                                               ; preds = %13, %11, %7
  %17 = load ptr, ptr %2, align 8
  ret ptr %17
}

; Function Attrs: nounwind uwtable
define internal i32 @set_diff_algorithm(ptr noundef %0, ptr noundef %1) #0 {
  %3 = alloca i32, align 4
  %4 = alloca ptr, align 8
  %5 = alloca ptr, align 8
  %6 = alloca i64, align 8
  %7 = alloca i32, align 4
  store ptr %0, ptr %4, align 8, !tbaa !78
  store ptr %1, ptr %5, align 8, !tbaa !11
  call void @llvm.lifetime.start.p0(i64 8, ptr %6) #9
  %8 = load ptr, ptr %5, align 8, !tbaa !11
  %9 = call i64 @parse_algorithm_value(ptr noundef %8)
  store i64 %9, ptr %6, align 8, !tbaa !83
  %10 = load i64, ptr %6, align 8, !tbaa !83
  %11 = icmp slt i64 %10, 0
  br i1 %11, label %12, label %13

12:                                               ; preds = %2
  store i32 -1, ptr %3, align 4
  store i32 1, ptr %7, align 4
  br label %22

13:                                               ; preds = %2
  %14 = load ptr, ptr %4, align 8, !tbaa !78
  %15 = getelementptr inbounds nuw %struct.s_xpparam, ptr %14, i32 0, i32 0
  %16 = load i64, ptr %15, align 8, !tbaa !86
  %17 = and i64 %16, -49153
  %18 = load i64, ptr %6, align 8, !tbaa !83
  %19 = or i64 %17, %18
  %20 = load ptr, ptr %4, align 8, !tbaa !78
  %21 = getelementptr inbounds nuw %struct.s_xpparam, ptr %20, i32 0, i32 0
  store i64 %19, ptr %21, align 8, !tbaa !86
  store i32 0, ptr %3, align 4
  store i32 1, ptr %7, align 4
  br label %22

22:                                               ; preds = %13, %12
  call void @llvm.lifetime.end.p0(i64 8, ptr %6) #9
  %23 = load i32, ptr %3, align 4
  ret i32 %23
}

; Function Attrs: nounwind uwtable
define internal i32 @diff_algorithm_cb(ptr noundef %0, ptr noundef %1, i32 noundef %2) #0 {
  %4 = alloca i32, align 4
  %5 = alloca ptr, align 8
  %6 = alloca ptr, align 8
  %7 = alloca i32, align 4
  %8 = alloca ptr, align 8
  %9 = alloca i32, align 4
  store ptr %0, ptr %5, align 8, !tbaa !76
  store ptr %1, ptr %6, align 8, !tbaa !11
  store i32 %2, ptr %7, align 4, !tbaa !4
  call void @llvm.lifetime.start.p0(i64 8, ptr %8) #9
  %10 = load ptr, ptr %5, align 8, !tbaa !76
  %11 = getelementptr inbounds nuw %struct.option, ptr %10, i32 0, i32 3
  %12 = load ptr, ptr %11, align 8, !tbaa !20
  store ptr %12, ptr %8, align 8, !tbaa !78
  br label %13

13:                                               ; preds = %3
  %14 = load i32, ptr %7, align 4, !tbaa !4
  %15 = icmp ne i32 %14, 0
  br i1 %15, label %16, label %17

16:                                               ; preds = %13
  call void (ptr, i32, ptr, ...) @BUG_fl(ptr noundef @.str.35, i32 noundef 50, ptr noundef @.str.36) #10
  unreachable

17:                                               ; preds = %13
  br label %18

18:                                               ; preds = %17
  br label %19

19:                                               ; preds = %18
  %20 = load ptr, ptr %8, align 8, !tbaa !78
  %21 = load ptr, ptr %6, align 8, !tbaa !11
  %22 = call i32 @set_diff_algorithm(ptr noundef %20, ptr noundef %21)
  %23 = icmp ne i32 %22, 0
  br i1 %23, label %24, label %28

24:                                               ; preds = %19
  %25 = call ptr @_(ptr noundef @.str.37)
  %26 = call i32 (ptr, ...) @error(ptr noundef %25)
  %27 = call i32 @const_error()
  store i32 %27, ptr %4, align 4
  store i32 1, ptr %9, align 4
  br label %29

28:                                               ; preds = %19
  store i32 0, ptr %4, align 4
  store i32 1, ptr %9, align 4
  br label %29

29:                                               ; preds = %28, %24
  call void @llvm.lifetime.end.p0(i64 8, ptr %8) #9
  %30 = load i32, ptr %4, align 4
  ret i32 %30
}