; Function Attrs: nounwind uwtable
define internal range(i32 -1, 1) i32 @diff_algorithm_cb(ptr noundef readonly captures(none) %0, ptr noundef %1, i32 noundef %2) #0 {
  %.not = icmp eq i32 %2, 0
  br i1 %.not, label %5, label %4

4:                                                ; preds = %3
  tail call void (ptr, i32, ptr, ...) @BUG_fl(ptr noundef nonnull @.str.35, i32 noundef 50, ptr noundef nonnull @.str.36) #13
  unreachable

5:                                                ; preds = %3
  %6 = getelementptr inbounds nuw i8, ptr %0, i64 16
  %7 = load ptr, ptr %6, align 8, !tbaa !15
  %8 = tail call i64 @parse_algorithm_value(ptr noundef %1) #12
  %9 = icmp slt i64 %8, 0
  br i1 %9, label %set_diff_algorithm.exit, label %set_diff_algorithm.exit.thread

set_diff_algorithm.exit.thread:                   ; preds = %5
  %10 = load i64, ptr %7, align 8, !tbaa !72
  %11 = and i64 %10, -49153
  %12 = or i64 %11, %8
  store i64 %12, ptr %7, align 8, !tbaa !72
  br label %17

set_diff_algorithm.exit:                          ; preds = %5
  %13 = load i32, ptr @git_gettext_enabled, align 4, !tbaa !4
  %.not4.i = icmp eq i32 %13, 0
  br i1 %.not4.i, label %_.exit, label %14

14:                                               ; preds = %set_diff_algorithm.exit
  %15 = tail call ptr @dcgettext(ptr noundef null, ptr noundef nonnull @.str.37, i32 noundef 5) #12
  br label %_.exit

_.exit:                                           ; preds = %set_diff_algorithm.exit, %14
  %.0.i5 = phi ptr [ %15, %14 ], [ @.str.37, %set_diff_algorithm.exit ]
  %16 = tail call i32 (ptr, ...) @error(ptr noundef %.0.i5) #12
  br label %17

17:                                               ; preds = %set_diff_algorithm.exit.thread, %_.exit
  %.0 = phi i32 [ -1, %_.exit ], [ 0, %set_diff_algorithm.exit.thread ]
  ret i32 %.0
}